target datalayout = "e-m:e-p270:32:32-p271:32:32-p272:64:64-i64:64-i128:128-f80:128-n8:16:32:64-S128"
target triple = "x86_64-unknown-linux-gnu"

%struct.MigrationIncomingState = type { ptr, [2 x ptr], ptr, ptr, %struct.QemuSemaphore, %struct.QemuEvent, %struct.AnnounceTimer, i64, i8, %struct.QemuThread, i8, i8, %struct.QemuThread, i32, i32, ptr, %struct.QemuMutex, ptr, i32, ptr, %struct.QemuSemaphore, %struct.QemuThread, i32, %struct.QemuMutex, ptr, ptr, ptr, ptr, i32, ptr, ptr, %struct.QemuSemaphore, ptr, %struct.QemuSemaphore, %struct.QemuSemaphore, %struct.QemuSemaphore, ptr, ptr, i32, %struct.QemuMutex, %struct.QemuCond, i32 }
%struct.QemuEvent = type { i32, i8 }
%struct.AnnounceTimer = type { ptr, %struct.AnnounceParameters, i32, i32 }
%struct.AnnounceParameters = type { i64, i64, i64, i64, i8, ptr, ptr }
%struct.QemuThread = type { i64 }
%struct.QemuSemaphore = type { %struct.QemuMutex, %struct.QemuCond, i32 }
%struct.QemuMutex = type { %union.pthread_mutex_t, i8 }
%union.pthread_mutex_t = type { %struct.__pthread_mutex_s }
%struct.__pthread_mutex_s = type { i32, i32, i32, i32, i32, i16, i16, %struct.__pthread_internal_list }
%struct.__pthread_internal_list = type { ptr, ptr }
%struct.QemuCond = type { %union.pthread_cond_t, i8 }
%union.pthread_cond_t = type { %struct.__pthread_cond_s }
%struct.__pthread_cond_s = type { %union.__atomic_wide_counter, %union.__atomic_wide_counter, [2 x i32], [2 x i32], i32, i32, [2 x i32] }
%union.__atomic_wide_counter = type { i64 }
%struct.timeval = type { i64, i64 }

@.str.2 = private unnamed_addr constant [30 x i8] c"../qemu/migration/migration.c\00", align 1
@.str.23 = private unnamed_addr constant [46 x i8] c"%s: MSG_RP_RECV_BITMAP only used for recovery\00", align 1
@__func__.migrate_send_rp_recv_bitmap = private unnamed_addr constant [28 x i8] c"migrate_send_rp_recv_bitmap\00", align 1
@qemu_mutex_lock_func = external global ptr, align 8
@trace_events_enabled_count = external global i32, align 4
@message_with_timestamp = external global i8, align 1
@qemu_loglevel = external global i32, align 4
@_TRACE_MIGRATE_SEND_RP_RECV_BITMAP_DSTATE = external global i16, align 2
@.str.69 = private unnamed_addr constant [64 x i8] c"%d@%zu.%06zu:migrate_send_rp_recv_bitmap block '%s' size 0x%li\0A\00", align 1
@.str.70 = private unnamed_addr constant [51 x i8] c"migrate_send_rp_recv_bitmap block '%s' size 0x%li\0A\00", align 1

; Function Attrs: nounwind sspstrong uwtable
define internal zeroext i1 @qemu_loglevel_mask(i32 noundef %mask) #0 {
entry:
  %mask.addr = alloca i32, align 4
  store i32 %mask, ptr %mask.addr, align 4
  %0 = load i32, ptr @qemu_loglevel, align 4
  %1 = load i32, ptr %mask.addr, align 4
  %and = and i32 %0, %1
  %cmp = icmp ne i32 %and, 0
  ret i1 %cmp
}

; Function Attrs: nounwind sspstrong uwtable
define internal void @_nocheck__trace_migrate_send_rp_recv_bitmap(ptr noundef %name, i64 noundef %size) #0 {
entry:
  %name.addr = alloca ptr, align 8
  %size.addr = alloca i64, align 8
  %_now = alloca %struct.timeval, align 8
  store ptr %name, ptr %name.addr, align 8
  store i64 %size, ptr %size.addr, align 8
  %0 = load i32, ptr @trace_events_enabled_count, align 4
  %tobool = icmp ne i32 %0, 0
  %lnot = xor i1 %tobool, true
  %lnot1 = xor i1 %lnot, true
  %lnot.ext = zext i1 %lnot1 to i32
  %conv = sext i32 %lnot.ext to i64
  %tobool2 = icmp ne i64 %conv, 0
  br i1 %tobool2, label %land.lhs.true, label %if.end11

land.lhs.true:                                    ; preds = %entry
  %1 = load i16, ptr @_TRACE_MIGRATE_SEND_RP_RECV_BITMAP_DSTATE, align 2
  %conv3 = zext i16 %1 to i32
  %tobool4 = icmp ne i32 %conv3, 0
  br i1 %tobool4, label %land.lhs.true5, label %if.end11

land.lhs.true5:                                   ; preds = %land.lhs.true
  %call = call zeroext i1 @qemu_loglevel_mask(i32 noundef 32768)
  br i1 %call, label %if.then, label %if.end11

if.then:                                          ; preds = %land.lhs.true5
  %2 = load i8, ptr @message_with_timestamp, align 1
  %tobool7 = trunc i8 %2 to i1
  br i1 %tobool7, label %if.then8, label %if.else

if.then8:                                         ; preds = %if.then
  %call9 = call i32 @gettimeofday(ptr noundef %_now, ptr noundef null) #18
  %call10 = call i32 @qemu_get_thread_id()
  %tv_sec = getelementptr inbounds %struct.timeval, ptr %_now, i32 0, i32 0
  %3 = load i64, ptr %tv_sec, align 8
  %tv_usec = getelementptr inbounds %struct.timeval, ptr %_now, i32 0, i32 1
  %4 = load i64, ptr %tv_usec, align 8
  %5 = load ptr, ptr %name.addr, align 8
  %6 = load i64, ptr %size.addr, align 8
  call void (ptr, ...) @qemu_log(ptr noundef @.str.69, i32 noundef %call10, i64 noundef %3, i64 noundef %4, ptr noundef %5, i64 noundef %6)
  br label %if.end

if.else:                                          ; preds = %if.then
  %7 = load ptr, ptr %name.addr, align 8
  %8 = load i64, ptr %size.addr, align 8
  call void (ptr, ...) @qemu_log(ptr noundef @.str.70, ptr noundef %7, i64 noundef %8)
  br label %if.end

if.end:                                           ; preds = %if.else, %if.then8
  br label %if.end11

if.end11:                                         ; preds = %if.end, %land.lhs.true5, %land.lhs.true, %entry
  ret void
}

; Function Attrs: nounwind sspstrong uwtable
define internal void @trace_migrate_send_rp_recv_bitmap(ptr noundef %name, i64 noundef %size) #0 {
entry:
  %name.addr = alloca ptr, align 8
  %size.addr = alloca i64, align 8
  store ptr %name, ptr %name.addr, align 8
  store i64 %size, ptr %size.addr, align 8
  %0 = load ptr, ptr %name.addr, align 8
  %1 = load i64, ptr %size.addr, align 8
  call void @_nocheck__trace_migrate_send_rp_recv_bitmap(ptr noundef %0, i64 noundef %1)
  ret void
}

; Function Attrs: nounwind sspstrong uwtable
define dso_local void @migrate_send_rp_recv_bitmap(ptr noundef %mis, ptr noundef %block_name) #0 {
entry:
  %mis.addr = alloca ptr, align 8
  %block_name.addr = alloca ptr, align 8
  %buf = alloca [512 x i8], align 16
  %len = alloca i32, align 4
  %res = alloca i64, align 8
  %_f = alloca ptr, align 8
  %tmp = alloca ptr, align 8
  %atomic-temp = alloca ptr, align 8
  store ptr %mis, ptr %mis.addr, align 8
  store ptr %block_name, ptr %block_name.addr, align 8
  %0 = load ptr, ptr %block_name.addr, align 8
  %call = call i64 @strlen(ptr noundef %0) #15
  %conv = trunc i64 %call to i32
  store i32 %conv, ptr %len, align 4
  %1 = load i32, ptr %len, align 4
  %conv1 = trunc i32 %1 to i8
  %arrayidx = getelementptr [512 x i8], ptr %buf, i64 0, i64 0
  store i8 %conv1, ptr %arrayidx, align 16
  %arraydecay = getelementptr inbounds [512 x i8], ptr %buf, i64 0, i64 0
  %add.ptr = getelementptr i8, ptr %arraydecay, i64 1
  %2 = load ptr, ptr %block_name.addr, align 8
  %3 = load i32, ptr %len, align 4
  %conv2 = sext i32 %3 to i64
  call void @llvm.memcpy.p0.p0.i64(ptr align 1 %add.ptr, ptr align 1 %2, i64 %conv2, i1 false)
  %4 = load ptr, ptr %mis.addr, align 8
  %state = getelementptr inbounds %struct.MigrationIncomingState, ptr %4, i32 0, i32 28
  %5 = load i32, ptr %state, align 8
  %cmp = icmp ne i32 %5, 7
  br i1 %cmp, label %if.then, label %if.end

if.then:                                          ; preds = %entry
  call void (ptr, ...) @error_report(ptr noundef @.str.23, ptr noundef @__func__.migrate_send_rp_recv_bitmap)
  br label %return

if.end:                                           ; preds = %entry
  %6 = load ptr, ptr %mis.addr, align 8
  %7 = load i32, ptr %len, align 4
  %add = add i32 %7, 1
  %conv4 = trunc i32 %add to i16
  %arraydecay5 = getelementptr inbounds [512 x i8], ptr %buf, i64 0, i64 0
  %call6 = call i32 @migrate_send_rp_message(ptr noundef %6, i32 noundef 5, i16 noundef zeroext %conv4, ptr noundef %arraydecay5)
  br label %while.cond

while.cond:                                       ; preds = %do.end, %if.end
  br i1 false, label %while.body, label %while.end

while.body:                                       ; preds = %while.cond
  br label %do.body

do.body:                                          ; preds = %while.body
  call void @g_assertion_message_expr(ptr noundef null, ptr noundef @.str.2, i32 noundef 976, ptr noundef @__func__.migrate_send_rp_recv_bitmap, ptr noundef null) #16
  unreachable

do.end:                                           ; No predecessors!
  br label %while.cond

while.end:                                        ; preds = %while.cond
  %8 = load atomic i64, ptr @qemu_mutex_lock_func monotonic, align 8
  store i64 %8, ptr %atomic-temp, align 8
  %9 = load ptr, ptr %atomic-temp, align 8
  store ptr %9, ptr %tmp, align 8
  %10 = load ptr, ptr %tmp, align 8
  store ptr %10, ptr %_f, align 8
  %11 = load ptr, ptr %_f, align 8
  %12 = load ptr, ptr %mis.addr, align 8
  %rp_mutex = getelementptr inbounds %struct.MigrationIncomingState, ptr %12, i32 0, i32 16
  call void %11(ptr noundef %rp_mutex, ptr noundef @.str.2, i32 noundef 976)
  %13 = load ptr, ptr %mis.addr, align 8
  %to_src_file = getelementptr inbounds %struct.MigrationIncomingState, ptr %13, i32 0, i32 15
  %14 = load ptr, ptr %to_src_file, align 8
  %15 = load ptr, ptr %block_name.addr, align 8
  %call7 = call i64 @ramblock_recv_bitmap_send(ptr noundef %14, ptr noundef %15)
  store i64 %call7, ptr %res, align 8
  %16 = load ptr, ptr %mis.addr, align 8
  %rp_mutex8 = getelementptr inbounds %struct.MigrationIncomingState, ptr %16, i32 0, i32 16
  call void @qemu_mutex_unlock_impl(ptr noundef %rp_mutex8, ptr noundef @.str.2, i32 noundef 978)
  %17 = load ptr, ptr %block_name.addr, align 8
  %18 = load i64, ptr %res, align 8
  call void @trace_migrate_send_rp_recv_bitmap(ptr noundef %17, i64 noundef %18)
  br label %return

return:                                           ; preds = %while.end, %if.then
  ret void
}