; Function Attrs: nounwind sspstrong uwtable
define dso_local void @migrate_send_rp_recv_bitmap(ptr noundef %mis, ptr noundef %block_name) local_unnamed_addr #0 {
entry:
  %_now.i.i = alloca %struct.timeval, align 8
  %buf = alloca [512 x i8], align 16
  %call = tail call i64 @strlen(ptr noundef nonnull dereferenceable(1) %block_name) #22
  %conv1 = trunc i64 %call to i8
  store i8 %conv1, ptr %buf, align 16
  %add.ptr = getelementptr inbounds nuw i8, ptr %buf, i64 1
  %sext = shl i64 %call, 32
  %conv2 = ashr exact i64 %sext, 32
  call void @llvm.memcpy.p0.p0.i64(ptr nonnull align 1 %add.ptr, ptr nonnull align 1 %block_name, i64 %conv2, i1 false)
  %state = getelementptr inbounds nuw i8, ptr %mis, i64 568
  %0 = load i32, ptr %state, align 8
  %cmp.not = icmp eq i32 %0, 7
  br i1 %cmp.not, label %if.end, label %if.then

if.then:                                          ; preds = %entry
  tail call void (ptr, ...) @error_report(ptr noundef nonnull @.str.23, ptr noundef nonnull @__func__.migrate_send_rp_recv_bitmap) #19
  br label %return

if.end:                                           ; preds = %entry
  %conv = trunc i64 %call to i16
  %add = add i16 %conv, 1
  %call6 = call fastcc i32 @migrate_send_rp_message(ptr noundef nonnull %mis, i32 noundef 5, i16 noundef zeroext %add, ptr noundef nonnull %buf)
  %1 = load atomic i64, ptr @qemu_mutex_lock_func monotonic, align 8
  %2 = inttoptr i64 %1 to ptr
  %rp_mutex = getelementptr inbounds nuw i8, ptr %mis, i64 288
  call void %2(ptr noundef nonnull %rp_mutex, ptr noundef nonnull @.str.2, i32 noundef 976) #19
  %to_src_file = getelementptr inbounds nuw i8, ptr %mis, i64 280
  %3 = load ptr, ptr %to_src_file, align 8
  %call7 = call i64 @ramblock_recv_bitmap_send(ptr noundef %3, ptr noundef nonnull %block_name) #19
  call void @qemu_mutex_unlock_impl(ptr noundef nonnull %rp_mutex, ptr noundef nonnull @.str.2, i32 noundef 978) #19
  call void @llvm.lifetime.start.p0(i64 16, ptr nonnull %_now.i.i)
  %4 = load i32, ptr @trace_events_enabled_count, align 4
  %tobool.i.i = icmp ne i32 %4, 0
  %5 = load i16, ptr @_TRACE_MIGRATE_SEND_RP_RECV_BITMAP_DSTATE, align 2
  %tobool4.i.i = icmp ne i16 %5, 0
  %or.cond.i.i = select i1 %tobool.i.i, i1 %tobool4.i.i, i1 false
  br i1 %or.cond.i.i, label %land.lhs.true5.i.i, label %trace_migrate_send_rp_recv_bitmap.exit

land.lhs.true5.i.i:                               ; preds = %if.end
  %6 = load i32, ptr @qemu_loglevel, align 4
  %and.i.i.i = and i32 %6, 32768
  %cmp.i.not.i.i = icmp eq i32 %and.i.i.i, 0
  br i1 %cmp.i.not.i.i, label %trace_migrate_send_rp_recv_bitmap.exit, label %if.then.i.i

if.then.i.i:                                      ; preds = %land.lhs.true5.i.i
  %7 = load i8, ptr @message_with_timestamp, align 1
  %tobool7.i.i = trunc i8 %7 to i1
  br i1 %tobool7.i.i, label %if.then8.i.i, label %if.else.i.i

if.then8.i.i:                                     ; preds = %if.then.i.i
  %call9.i.i = call i32 @gettimeofday(ptr noundef nonnull %_now.i.i, ptr noundef null) #19
  %call10.i.i = call i32 @qemu_get_thread_id() #19
  %8 = load i64, ptr %_now.i.i, align 8
  %tv_usec.i.i = getelementptr inbounds nuw i8, ptr %_now.i.i, i64 8
  %9 = load i64, ptr %tv_usec.i.i, align 8
  call void (ptr, ...) @qemu_log(ptr noundef nonnull @.str.69, i32 noundef %call10.i.i, i64 noundef %8, i64 noundef %9, ptr noundef nonnull %block_name, i64 noundef %call7) #19
  br label %trace_migrate_send_rp_recv_bitmap.exit

if.else.i.i:                                      ; preds = %if.then.i.i
  call void (ptr, ...) @qemu_log(ptr noundef nonnull @.str.70, ptr noundef nonnull %block_name, i64 noundef %call7) #19
  br label %trace_migrate_send_rp_recv_bitmap.exit

trace_migrate_send_rp_recv_bitmap.exit:           ; preds = %if.end, %land.lhs.true5.i.i, %if.then8.i.i, %if.else.i.i
  call void @llvm.lifetime.end.p0(i64 16, ptr nonnull %_now.i.i)
  br label %return

return:                                           ; preds = %trace_migrate_send_rp_recv_bitmap.exit, %if.then
  ret void
}